; Function Attrs: nounwind uwtable
define internal void @kdf_hkdf_reset(ptr noundef %0) #0 {
  %2 = load ptr, ptr %0, align 8, !tbaa !3
  %3 = getelementptr inbounds nuw i8, ptr %0, i64 16
  tail call void @ossl_prov_digest_reset(ptr noundef nonnull %3) #7
  %4 = getelementptr inbounds nuw i8, ptr %0, i64 40
  %5 = load ptr, ptr %4, align 8, !tbaa !14
  tail call void @CRYPTO_free(ptr noundef %5, ptr noundef nonnull @.str, i32 noundef 134) #7
  %6 = getelementptr inbounds nuw i8, ptr %0, i64 72
  %7 = load ptr, ptr %6, align 8, !tbaa !18
  tail call void @CRYPTO_free(ptr noundef %7, ptr noundef nonnull @.str, i32 noundef 136) #7
  %8 = getelementptr inbounds nuw i8, ptr %0, i64 88
  %9 = load ptr, ptr %8, align 8, !tbaa !20
  tail call void @CRYPTO_free(ptr noundef %9, ptr noundef nonnull @.str, i32 noundef 137) #7
  %10 = getelementptr inbounds nuw i8, ptr %0, i64 104
  %11 = load ptr, ptr %10, align 8, !tbaa !22
  %12 = getelementptr inbounds nuw i8, ptr %0, i64 112
  %13 = load i64, ptr %12, align 8, !tbaa !23
  tail call void @CRYPTO_clear_free(ptr noundef %11, i64 noundef %13, ptr noundef nonnull @.str, i32 noundef 138) #7
  %14 = getelementptr inbounds nuw i8, ptr %0, i64 56
  %15 = load ptr, ptr %14, align 8, !tbaa !16
  %16 = getelementptr inbounds nuw i8, ptr %0, i64 64
  %17 = load i64, ptr %16, align 8, !tbaa !17
  tail call void @CRYPTO_clear_free(ptr noundef %15, i64 noundef %17, ptr noundef nonnull @.str, i32 noundef 139) #7
  %18 = getelementptr inbounds nuw i8, ptr %0, i64 120
  %19 = load ptr, ptr %18, align 8, !tbaa !24
  %20 = getelementptr inbounds nuw i8, ptr %0, i64 128
  %21 = load i64, ptr %20, align 8, !tbaa !25
  tail call void @CRYPTO_clear_free(ptr noundef %19, i64 noundef %21, ptr noundef nonnull @.str, i32 noundef 140) #7
  %22 = getelementptr inbounds nuw i8, ptr %0, i64 8
  tail call void @llvm.memset.p0.i64(ptr noundef nonnull align 8 dereferenceable(136) %22, i8 0, i64 128, i1 false)
  store ptr %2, ptr %0, align 8, !tbaa !3
  ret void
}